(dp0
S'limelight'
p1
(dp2
S'Full'
p3
(lp4
S'www.dreamworksanimation.com'
p5
aS'www.lequipe.fr'
p6
aS'www.nintendo-europe.com'
p7
aS'www.swissre.com'
p8
aS'www.carhartt.com'
p9
aS'www.financialexpress.com'
p10
aS'www.doosan.com'
p11
aS'www.vudu.com'
p12
asS'Partial'
p13
(lp14
(S'www.nydailynews.com'
p15
S'static1.nydailynews.com'
p16
tp17
a(S'www.smosh.com'
p18
S'cdn.smosh.com'
p19
tp20
a(S'www.space.com'
p21
S'i.space.com'
p22
tp23
a(S'www.ubi.com'
p24
S'static2.cdn.ubi.com'
p25
tp26
a(g15
S'static3.nydailynews.com'
p27
tp28
a(S'www.rivalpowered.com'
p29
S'cdn.rivalpowered.com'
p30
tp31
assS'MaxCDN'
p32
(dp33
g3
(lp34
S'www.kodak.com'
p35
asg13
(lp36
(S'www.thenextweb.com'
p37
S'cdn2.tnwcdn.com'
p38
tp39
a(S'www.washingtontimes.com'
p40
S'media.washtimes.com'
p41
tp42
a(S'www.kixeye.com'
p43
S'kxp-cdn3-kx.kixeye.com'
p44
tp45
a(S'www.macrumors.com'
p46
S'cdn.macrumors.com'
p47
tp48
a(S'www.templatemonster.com'
p49
S'scr.templatemonster.com'
p50
tp51
a(S'www.uproxx.com'
p52
S'cdn.uproxx.com'
p53
tp54
a(S'www.stumbleupon.com'
p55
S'nb9.stumbleupon.netdna-cdn.com'
p56
tp57
assS'Level3'
p58
(dp59
g3
(lp60
sg13
(lp61
(S'www.pizap.com'
p62
S'cdn.pizap.com'
p63
tp64
a(S'www.cwtv.com'
p65
S'images.cwtv.com'
p66
tp67
a(S'www.bikeradar.com'
p68
S'cdn.mos.bikeradar.com'
p69
tp70
a(S'www.musicradar.com'
p71
S'cdn.mos.musicradar.com'
p72
tp73
a(S'www.pgeveryday.com'
p74
S'cdn.pgeveryday.com'
p75
tp76
a(S'www.bearingarms.com'
p77
S'cdn.bearingarms.com'
p78
tp79
assS'Akamai'
p80
(dp81
g3
(lp82
S'www.rhapsody.com'
p83
aS'www.livemint.com'
p84
aS'www.redhat.com'
p85
aS'www.cnet.com'
p86
aS'www.espncricinfo.com'
p87
aS'www.shaadi.com'
p88
aS'www.mtv.com'
p89
aS'www.nokia.com'
p90
aS'www.naukri.com'
p91
asg13
(lp92
(S'www.spiceworks.com'
p93
S'wwwstatic.spiceworks.com'
p94
tp95
a(S'www.bbc.com'
p96
S'news.bbcimg.co.uk'
p97
tp98
a(S'www.adobe.com'
p99
S'wwwimages.adobe.com'
p100
tp101
a(S'www.flipkart.com'
p102
S'img5a.flixcart.com'
p103
tp104
a(S'www.nytimes.com'
p105
S'graphics8.nytimes.com'
p106
tp107
a(S'www.justdial.com'
p108
S'images.jdmagicbox.com'
p109
tp110
assS'faslty'
p111
(dp112
g3
(lp113
S'www.theguardian.com'
p114
aS'www.gov.uk'
p115
aS'www.lonelyplanet.com'
p116
aS'www.voxer.com'
p117
aS'www.pubnub.com'
p118
aS'www.fastly.picmonkey.com'
p119
asg13
(lp120
(S'www.foursquare.com'
p121
S'irs3.4sqi.net'
p122
tp123
a(S'www.wanelo.com'
p124
S'cdn-s3-3.wanelo.com'
p125
tp126
a(S'www.disqus.com'
p127
S'a.disquscdn.com'
p128
tp129
a(S'www.shopify.com'
p130
S'cdn.shopify.com'
p131
tp132
assS'Highwinds'
p133
(dp134
g3
(lp135
S'www.irishrugby.ie'
p136
asg13
(lp137
(S'www.blip.tv'
p138
S'3.i.blip.tv'
p139
tp140
a(S'www.abcya.com'
p141
S'external.abcya.com'
p142
tp143
a(S'www.sotic.net'
p144
S'cdn.soticservers.net'
p145
tp146
a(S'www.internationaltaxreview.com'
p147
S'cdn.internationaltaxreview.com'
p148
tp149
a(S'www.85play.com'
p150
S'cds.k9c7x6f6.hwcdn.net'
p151
tp152
a(S'www.learnaboutpizza.com'
p153
S'cdn.learnaboutpizza.com'
p154
tp155
assS'Cachefly'
p156
(dp157
g3
(lp158
S'0.cachefly.cachefly.net'
p159
asg13
(lp160
(S'www.arstechnica.com'
p161
S'cdn.arstechnica.net'
p162
tp163
assS'EdgecastCDN'
p164
(dp165
g3
(lp166
S'www.kaobrands.com'
p167
aS'www.local.com'
p168
aS'www.ziprealty.com'
p169
aS'www.iobit.com'
p170
aS'www.mbusa.com'
p171
asg13
(lp172
(S'www.500px.com'
p173
S'ppcdn.500px.org'
p174
tp175
a(S'www.break.com'
p176
S'media1.break.com'
p177
tp178
a(S'www.6waves.com'
p179
S'img.6waves.com'
p180
tp181
a(S'www.wiredrive.com'
p182
S'cdn.wiredrive.com'
p183
tp184
a(S'www.viagogo.com'
p185
S'cdn1.viagogo.net'
p186
tp187
a(S'www.discogs.com'
p188
S's.pixogs.com'
p189
tp190
a(S'www.livechatinc.com'
p191
S'cdn.livechatinc.com'
p192
tp193
a(S'www.steelhouse.com'
p194
S'cdn4s.steelhousemedia.com'
p195
tp196
assS'Cloudfront'
p197
(dp198
g3
(lp199
S'mars.jpl.nasa.gov'
p200
asg13
(lp201
(S'www.imdb.com'
p202
S'video-http.media-imdb.com'
p203
tp204
a(S'www.joomlart.com'
p205
S'joomlart.s3.amazonaws.com'
p206
tp207
a(S'www.ora.tv'
p208
S'f.ora.tv'
p209
tp210
assS'Internap'
p211
(dp212
g3
(lp213
sg13
(lp214
(S'www.localhotclassifieds.com'
p215
S'pod.localhotclassifieds.com'
p216
tp217
a(S'www.ifood.tv'
p218
S'swf.ifood.tv'
p219
tp220
a(S'www.localhotpersonals.com'
p221
S'static.localhotpersonals.com'
p222
tp223
a(g147
g148
tp224
a(S'www.bostonmagazine.com'
p225
S'cdn1.bostonmagazine.com'
p226
tp227
ass.